; Function Attrs: mustprogress nounwind uwtable
define internal fastcc void @"_ZSt22__stable_sort_adaptiveIPN4llvm8coverage20CounterMappingRegionES3_lN9__gnu_cxx5__ops15_Iter_comp_iterIZNS1_21CoverageMappingWriter5writeERNS0_11raw_ostreamEE3$_0EEEvT_SC_T0_T1_T2_"(ptr noundef %0, ptr noundef %1, ptr noundef %2, i64 noundef %3) unnamed_addr #2 {
  %5 = ptrtoint ptr %1 to i64
  %6 = ptrtoint ptr %0 to i64
  %7 = sub i64 %5, %6
  %8 = sdiv exact i64 %7, 56
  %9 = add nsw i64 %8, 1
  %10 = sdiv i64 %9, 2
  %11 = getelementptr inbounds %"struct.llvm::coverage::CounterMappingRegion", ptr %0, i64 %10
  %12 = icmp sgt i64 %10, %3
  br i1 %12, label %13, label %14

13:                                               ; preds = %4
  tail call fastcc void @"_ZSt22__stable_sort_adaptiveIPN4llvm8coverage20CounterMappingRegionES3_lN9__gnu_cxx5__ops15_Iter_comp_iterIZNS1_21CoverageMappingWriter5writeERNS0_11raw_ostreamEE3$_0EEEvT_SC_T0_T1_T2_"(ptr noundef %0, ptr noundef %11, ptr noundef %2, i64 noundef %3)
  tail call fastcc void @"_ZSt22__stable_sort_adaptiveIPN4llvm8coverage20CounterMappingRegionES3_lN9__gnu_cxx5__ops15_Iter_comp_iterIZNS1_21CoverageMappingWriter5writeERNS0_11raw_ostreamEE3$_0EEEvT_SC_T0_T1_T2_"(ptr noundef %11, ptr noundef %1, ptr noundef %2, i64 noundef %3)
  %.pre = ptrtoint ptr %11 to i64
  %.pre46 = sub i64 %5, %.pre
  %.pre48 = sdiv exact i64 %.pre46, 56
  br label %"_ZSt24__merge_sort_with_bufferIPN4llvm8coverage20CounterMappingRegionES3_N9__gnu_cxx5__ops15_Iter_comp_iterIZNS1_21CoverageMappingWriter5writeERNS0_11raw_ostreamEE3$_0EEEvT_SC_T0_T1_.exit43"

14:                                               ; preds = %4
  %15 = ptrtoint ptr %11 to i64
  %.idx = mul nsw i64 %10, 56
  %16 = getelementptr inbounds i8, ptr %2, i64 %.idx
  %17 = icmp sgt i64 %7, 672
  br i1 %17, label %.lr.ph.i.i, label %"_ZSt22__chunk_insertion_sortIPN4llvm8coverage20CounterMappingRegionElN9__gnu_cxx5__ops15_Iter_comp_iterIZNS1_21CoverageMappingWriter5writeERNS0_11raw_ostreamEE3$_0EEEvT_SC_T0_T1_.exit.thread.i"

"_ZSt22__chunk_insertion_sortIPN4llvm8coverage20CounterMappingRegionElN9__gnu_cxx5__ops15_Iter_comp_iterIZNS1_21CoverageMappingWriter5writeERNS0_11raw_ostreamEE3$_0EEEvT_SC_T0_T1_.exit.thread.i": ; preds = %14
  tail call fastcc void @"_ZSt16__insertion_sortIPN4llvm8coverage20CounterMappingRegionEN9__gnu_cxx5__ops15_Iter_comp_iterIZNS1_21CoverageMappingWriter5writeERNS0_11raw_ostreamEE3$_0EEEvT_SC_T0_"(ptr noundef %0, ptr noundef %11)
  br label %"_ZSt24__merge_sort_with_bufferIPN4llvm8coverage20CounterMappingRegionES3_N9__gnu_cxx5__ops15_Iter_comp_iterIZNS1_21CoverageMappingWriter5writeERNS0_11raw_ostreamEE3$_0EEEvT_SC_T0_T1_.exit"

.lr.ph.i.i:                                       ; preds = %14, %.lr.ph.i.i
  %.013.i.i = phi ptr [ %18, %.lr.ph.i.i ], [ %0, %14 ]
  %18 = getelementptr inbounds i8, ptr %.013.i.i, i64 392
  tail call fastcc void @"_ZSt16__insertion_sortIPN4llvm8coverage20CounterMappingRegionEN9__gnu_cxx5__ops15_Iter_comp_iterIZNS1_21CoverageMappingWriter5writeERNS0_11raw_ostreamEE3$_0EEEvT_SC_T0_"(ptr noundef %.013.i.i, ptr noundef nonnull %18)
  %19 = ptrtoint ptr %18 to i64
  %20 = sub i64 %15, %19
  %21 = icmp sgt i64 %20, 336
  br i1 %21, label %.lr.ph.i.i, label %"_ZSt22__chunk_insertion_sortIPN4llvm8coverage20CounterMappingRegionElN9__gnu_cxx5__ops15_Iter_comp_iterIZNS1_21CoverageMappingWriter5writeERNS0_11raw_ostreamEE3$_0EEEvT_SC_T0_T1_.exit.i", !llvm.loop !13

"_ZSt22__chunk_insertion_sortIPN4llvm8coverage20CounterMappingRegionElN9__gnu_cxx5__ops15_Iter_comp_iterIZNS1_21CoverageMappingWriter5writeERNS0_11raw_ostreamEE3$_0EEEvT_SC_T0_T1_.exit.i": ; preds = %.lr.ph.i.i
  tail call fastcc void @"_ZSt16__insertion_sortIPN4llvm8coverage20CounterMappingRegionEN9__gnu_cxx5__ops15_Iter_comp_iterIZNS1_21CoverageMappingWriter5writeERNS0_11raw_ostreamEE3$_0EEEvT_SC_T0_"(ptr noundef nonnull %18, ptr noundef %11)
  %22 = icmp sgt i64 %7, 784
  br i1 %22, label %.lr.ph.i, label %"_ZSt24__merge_sort_with_bufferIPN4llvm8coverage20CounterMappingRegionES3_N9__gnu_cxx5__ops15_Iter_comp_iterIZNS1_21CoverageMappingWriter5writeERNS0_11raw_ostreamEE3$_0EEEvT_SC_T0_T1_.exit"

.lr.ph.i:                                         ; preds = %"_ZSt22__chunk_insertion_sortIPN4llvm8coverage20CounterMappingRegionElN9__gnu_cxx5__ops15_Iter_comp_iterIZNS1_21CoverageMappingWriter5writeERNS0_11raw_ostreamEE3$_0EEEvT_SC_T0_T1_.exit.i", %.lr.ph.i
  %.023.i = phi i64 [ %24, %.lr.ph.i ], [ 7, %"_ZSt22__chunk_insertion_sortIPN4llvm8coverage20CounterMappingRegionElN9__gnu_cxx5__ops15_Iter_comp_iterIZNS1_21CoverageMappingWriter5writeERNS0_11raw_ostreamEE3$_0EEEvT_SC_T0_T1_.exit.i" ]
  tail call fastcc void @"_ZSt17__merge_sort_loopIPN4llvm8coverage20CounterMappingRegionES3_lN9__gnu_cxx5__ops15_Iter_comp_iterIZNS1_21CoverageMappingWriter5writeERNS0_11raw_ostreamEE3$_0EEEvT_SC_T0_T1_T2_"(ptr noundef %0, ptr noundef %11, ptr noundef %2, i64 noundef %.023.i)
  %23 = shl nuw nsw i64 %.023.i, 1
  tail call fastcc void @"_ZSt17__merge_sort_loopIPN4llvm8coverage20CounterMappingRegionES3_lN9__gnu_cxx5__ops15_Iter_comp_iterIZNS1_21CoverageMappingWriter5writeERNS0_11raw_ostreamEE3$_0EEEvT_SC_T0_T1_T2_"(ptr noundef %2, ptr noundef nonnull %16, ptr noundef %0, i64 noundef %23)
  %24 = shl nsw i64 %.023.i, 2
  %25 = icmp slt i64 %24, %10
  br i1 %25, label %.lr.ph.i, label %"_ZSt24__merge_sort_with_bufferIPN4llvm8coverage20CounterMappingRegionES3_N9__gnu_cxx5__ops15_Iter_comp_iterIZNS1_21CoverageMappingWriter5writeERNS0_11raw_ostreamEE3$_0EEEvT_SC_T0_T1_.exit", !llvm.loop !14

"_ZSt24__merge_sort_with_bufferIPN4llvm8coverage20CounterMappingRegionES3_N9__gnu_cxx5__ops15_Iter_comp_iterIZNS1_21CoverageMappingWriter5writeERNS0_11raw_ostreamEE3$_0EEEvT_SC_T0_T1_.exit": ; preds = %.lr.ph.i, %"_ZSt22__chunk_insertion_sortIPN4llvm8coverage20CounterMappingRegionElN9__gnu_cxx5__ops15_Iter_comp_iterIZNS1_21CoverageMappingWriter5writeERNS0_11raw_ostreamEE3$_0EEEvT_SC_T0_T1_.exit.thread.i", %"_ZSt22__chunk_insertion_sortIPN4llvm8coverage20CounterMappingRegionElN9__gnu_cxx5__ops15_Iter_comp_iterIZNS1_21CoverageMappingWriter5writeERNS0_11raw_ostreamEE3$_0EEEvT_SC_T0_T1_.exit.i"
  %26 = sub i64 %5, %15
  %27 = sdiv exact i64 %26, 56
  %28 = getelementptr inbounds i8, ptr %2, i64 %26
  %29 = icmp sgt i64 %26, 336
  br i1 %29, label %.lr.ph.i.i38, label %"_ZSt22__chunk_insertion_sortIPN4llvm8coverage20CounterMappingRegionElN9__gnu_cxx5__ops15_Iter_comp_iterIZNS1_21CoverageMappingWriter5writeERNS0_11raw_ostreamEE3$_0EEEvT_SC_T0_T1_.exit.thread.i37"

"_ZSt22__chunk_insertion_sortIPN4llvm8coverage20CounterMappingRegionElN9__gnu_cxx5__ops15_Iter_comp_iterIZNS1_21CoverageMappingWriter5writeERNS0_11raw_ostreamEE3$_0EEEvT_SC_T0_T1_.exit.thread.i37": ; preds = %"_ZSt24__merge_sort_with_bufferIPN4llvm8coverage20CounterMappingRegionES3_N9__gnu_cxx5__ops15_Iter_comp_iterIZNS1_21CoverageMappingWriter5writeERNS0_11raw_ostreamEE3$_0EEEvT_SC_T0_T1_.exit"
  tail call fastcc void @"_ZSt16__insertion_sortIPN4llvm8coverage20CounterMappingRegionEN9__gnu_cxx5__ops15_Iter_comp_iterIZNS1_21CoverageMappingWriter5writeERNS0_11raw_ostreamEE3$_0EEEvT_SC_T0_"(ptr noundef %11, ptr noundef %1)
  br label %"_ZSt24__merge_sort_with_bufferIPN4llvm8coverage20CounterMappingRegionES3_N9__gnu_cxx5__ops15_Iter_comp_iterIZNS1_21CoverageMappingWriter5writeERNS0_11raw_ostreamEE3$_0EEEvT_SC_T0_T1_.exit43"

.lr.ph.i.i38:                                     ; preds = %"_ZSt24__merge_sort_with_bufferIPN4llvm8coverage20CounterMappingRegionES3_N9__gnu_cxx5__ops15_Iter_comp_iterIZNS1_21CoverageMappingWriter5writeERNS0_11raw_ostreamEE3$_0EEEvT_SC_T0_T1_.exit", %.lr.ph.i.i38
  %.013.i.i39 = phi ptr [ %30, %.lr.ph.i.i38 ], [ %11, %"_ZSt24__merge_sort_with_bufferIPN4llvm8coverage20CounterMappingRegionES3_N9__gnu_cxx5__ops15_Iter_comp_iterIZNS1_21CoverageMappingWriter5writeERNS0_11raw_ostreamEE3$_0EEEvT_SC_T0_T1_.exit" ]
  %30 = getelementptr inbounds i8, ptr %.013.i.i39, i64 392
  tail call fastcc void @"_ZSt16__insertion_sortIPN4llvm8coverage20CounterMappingRegionEN9__gnu_cxx5__ops15_Iter_comp_iterIZNS1_21CoverageMappingWriter5writeERNS0_11raw_ostreamEE3$_0EEEvT_SC_T0_"(ptr noundef %.013.i.i39, ptr noundef nonnull %30)
  %31 = ptrtoint ptr %30 to i64
  %32 = sub i64 %5, %31
  %33 = icmp sgt i64 %32, 336
  br i1 %33, label %.lr.ph.i.i38, label %"_ZSt22__chunk_insertion_sortIPN4llvm8coverage20CounterMappingRegionElN9__gnu_cxx5__ops15_Iter_comp_iterIZNS1_21CoverageMappingWriter5writeERNS0_11raw_ostreamEE3$_0EEEvT_SC_T0_T1_.exit.i40", !llvm.loop !13

"_ZSt22__chunk_insertion_sortIPN4llvm8coverage20CounterMappingRegionElN9__gnu_cxx5__ops15_Iter_comp_iterIZNS1_21CoverageMappingWriter5writeERNS0_11raw_ostreamEE3$_0EEEvT_SC_T0_T1_.exit.i40": ; preds = %.lr.ph.i.i38
  tail call fastcc void @"_ZSt16__insertion_sortIPN4llvm8coverage20CounterMappingRegionEN9__gnu_cxx5__ops15_Iter_comp_iterIZNS1_21CoverageMappingWriter5writeERNS0_11raw_ostreamEE3$_0EEEvT_SC_T0_"(ptr noundef nonnull %30, ptr noundef %1)
  %34 = icmp sgt i64 %26, 392
  br i1 %34, label %.lr.ph.i41, label %"_ZSt24__merge_sort_with_bufferIPN4llvm8coverage20CounterMappingRegionES3_N9__gnu_cxx5__ops15_Iter_comp_iterIZNS1_21CoverageMappingWriter5writeERNS0_11raw_ostreamEE3$_0EEEvT_SC_T0_T1_.exit43"

.lr.ph.i41:                                       ; preds = %"_ZSt22__chunk_insertion_sortIPN4llvm8coverage20CounterMappingRegionElN9__gnu_cxx5__ops15_Iter_comp_iterIZNS1_21CoverageMappingWriter5writeERNS0_11raw_ostreamEE3$_0EEEvT_SC_T0_T1_.exit.i40", %.lr.ph.i41
  %.023.i42 = phi i64 [ %36, %.lr.ph.i41 ], [ 7, %"_ZSt22__chunk_insertion_sortIPN4llvm8coverage20CounterMappingRegionElN9__gnu_cxx5__ops15_Iter_comp_iterIZNS1_21CoverageMappingWriter5writeERNS0_11raw_ostreamEE3$_0EEEvT_SC_T0_T1_.exit.i40" ]
  tail call fastcc void @"_ZSt17__merge_sort_loopIPN4llvm8coverage20CounterMappingRegionES3_lN9__gnu_cxx5__ops15_Iter_comp_iterIZNS1_21CoverageMappingWriter5writeERNS0_11raw_ostreamEE3$_0EEEvT_SC_T0_T1_T2_"(ptr noundef %11, ptr noundef %1, ptr noundef %2, i64 noundef %.023.i42)
  %35 = shl nuw nsw i64 %.023.i42, 1
  tail call fastcc void @"_ZSt17__merge_sort_loopIPN4llvm8coverage20CounterMappingRegionES3_lN9__gnu_cxx5__ops15_Iter_comp_iterIZNS1_21CoverageMappingWriter5writeERNS0_11raw_ostreamEE3$_0EEEvT_SC_T0_T1_T2_"(ptr noundef %2, ptr noundef nonnull %28, ptr noundef %11, i64 noundef %35)
  %36 = shl nsw i64 %.023.i42, 2
  %37 = icmp slt i64 %36, %27
  br i1 %37, label %.lr.ph.i41, label %"_ZSt24__merge_sort_with_bufferIPN4llvm8coverage20CounterMappingRegionES3_N9__gnu_cxx5__ops15_Iter_comp_iterIZNS1_21CoverageMappingWriter5writeERNS0_11raw_ostreamEE3$_0EEEvT_SC_T0_T1_.exit43", !llvm.loop !14

"_ZSt24__merge_sort_with_bufferIPN4llvm8coverage20CounterMappingRegionES3_N9__gnu_cxx5__ops15_Iter_comp_iterIZNS1_21CoverageMappingWriter5writeERNS0_11raw_ostreamEE3$_0EEEvT_SC_T0_T1_.exit43": ; preds = %.lr.ph.i41, %"_ZSt22__chunk_insertion_sortIPN4llvm8coverage20CounterMappingRegionElN9__gnu_cxx5__ops15_Iter_comp_iterIZNS1_21CoverageMappingWriter5writeERNS0_11raw_ostreamEE3$_0EEEvT_SC_T0_T1_.exit.i40", %"_ZSt22__chunk_insertion_sortIPN4llvm8coverage20CounterMappingRegionElN9__gnu_cxx5__ops15_Iter_comp_iterIZNS1_21CoverageMappingWriter5writeERNS0_11raw_ostreamEE3$_0EEEvT_SC_T0_T1_.exit.thread.i37", %13
  %.pre-phi49 = phi i64 [ %27, %"_ZSt22__chunk_insertion_sortIPN4llvm8coverage20CounterMappingRegionElN9__gnu_cxx5__ops15_Iter_comp_iterIZNS1_21CoverageMappingWriter5writeERNS0_11raw_ostreamEE3$_0EEEvT_SC_T0_T1_.exit.i40" ], [ %27, %"_ZSt22__chunk_insertion_sortIPN4llvm8coverage20CounterMappingRegionElN9__gnu_cxx5__ops15_Iter_comp_iterIZNS1_21CoverageMappingWriter5writeERNS0_11raw_ostreamEE3$_0EEEvT_SC_T0_T1_.exit.thread.i37" ], [ %.pre48, %13 ], [ %27, %.lr.ph.i41 ]
  tail call fastcc void @"_ZSt16__merge_adaptiveIPN4llvm8coverage20CounterMappingRegionElS3_N9__gnu_cxx5__ops15_Iter_comp_iterIZNS1_21CoverageMappingWriter5writeERNS0_11raw_ostreamEE3$_0EEEvT_SC_SC_T0_SD_T1_SD_T2_"(ptr noundef %0, ptr noundef %11, ptr noundef %1, i64 noundef %10, i64 noundef %.pre-phi49, ptr noundef %2, i64 noundef %3)
  ret void
}